; Function Attrs: mustprogress uwtable
define void @_ZN6google8protobuf9FieldMask5ClearEv(ptr noundef nonnull align 8 dereferenceable(48) %this) unnamed_addr #3 align 2 personality ptr @__gxx_personality_v0 {
entry:
  %current_size_.i.i = getelementptr inbounds i8, ptr %this, i64 24
  %0 = load i32, ptr %current_size_.i.i, align 8
  %cmp.i.i = icmp sgt i32 %0, 0
  br i1 %cmp.i.i, label %if.then.i.i, label %_ZN6google8protobuf16RepeatedPtrFieldINSt7__cxx1112basic_stringIcSt11char_traitsIcESaIcEEEE5ClearEv.exit

if.then.i.i:                                      ; preds = %entry
  %1 = getelementptr inbounds i8, ptr %this, i64 16
  %2 = load ptr, ptr %1, align 8
  %3 = ptrtoint ptr %2 to i64
  %and.i.i.i.i.i = and i64 %3, 1
  %cmp.i.i.i.i.i = icmp eq i64 %and.i.i.i.i.i, 0
  %sub.i.i.i.i.i = add i64 %3, -1
  %4 = inttoptr i64 %sub.i.i.i.i.i to ptr
  %elements.i.i.i.i = getelementptr inbounds i8, ptr %4, i64 8
  %cond.i.i.i.i = select i1 %cmp.i.i.i.i.i, ptr %1, ptr %elements.i.i.i.i
  %wide.trip.count.i.i.i = zext nneg i32 %0 to i64
  br label %do.body.i.i.i

do.body.i.i.i:                                    ; preds = %do.body.i.i.i, %if.then.i.i
  %indvars.iv.i.i.i = phi i64 [ %indvars.iv.next.i.i.i, %do.body.i.i.i ], [ 0, %if.then.i.i ]
  %indvars.iv.next.i.i.i = add nuw nsw i64 %indvars.iv.i.i.i, 1
  %arrayidx.i.i.i = getelementptr inbounds ptr, ptr %cond.i.i.i.i, i64 %indvars.iv.i.i.i
  %5 = load ptr, ptr %arrayidx.i.i.i, align 8
  tail call void @_ZNSt7__cxx1112basic_stringIcSt11char_traitsIcESaIcEE5clearEv(ptr noundef nonnull align 8 dereferenceable(32) %5) #14
  %exitcond.not.i.i.i = icmp eq i64 %indvars.iv.next.i.i.i, %wide.trip.count.i.i.i
  br i1 %exitcond.not.i.i.i, label %_ZN6google8protobuf8internal20RepeatedPtrFieldBase13ClearNonEmptyINS1_18GenericTypeHandlerINSt7__cxx1112basic_stringIcSt11char_traitsIcESaIcEEEEEEEvv.exit.i.i, label %do.body.i.i.i, !llvm.loop !6

_ZN6google8protobuf8internal20RepeatedPtrFieldBase13ClearNonEmptyINS1_18GenericTypeHandlerINSt7__cxx1112basic_stringIcSt11char_traitsIcESaIcEEEEEEEvv.exit.i.i: ; preds = %do.body.i.i.i
  store i32 0, ptr %current_size_.i.i, align 8
  br label %_ZN6google8protobuf16RepeatedPtrFieldINSt7__cxx1112basic_stringIcSt11char_traitsIcESaIcEEEE5ClearEv.exit

_ZN6google8protobuf16RepeatedPtrFieldINSt7__cxx1112basic_stringIcSt11char_traitsIcESaIcEEEE5ClearEv.exit: ; preds = %entry, %_ZN6google8protobuf8internal20RepeatedPtrFieldBase13ClearNonEmptyINS1_18GenericTypeHandlerINSt7__cxx1112basic_stringIcSt11char_traitsIcESaIcEEEEEEEvv.exit.i.i
  %_internal_metadata_ = getelementptr inbounds i8, ptr %this, i64 8
  %6 = load i64, ptr %_internal_metadata_, align 8
  %and.i = and i64 %6, 1
  %tobool.i.not = icmp eq i64 %and.i, 0
  br i1 %tobool.i.not, label %_ZN6google8protobuf8internal16InternalMetadata5ClearINS0_15UnknownFieldSetEEEvv.exit, label %if.then.i

if.then.i:                                        ; preds = %_ZN6google8protobuf16RepeatedPtrFieldINSt7__cxx1112basic_stringIcSt11char_traitsIcESaIcEEEE5ClearEv.exit
  tail call void @_ZN6google8protobuf8internal16InternalMetadata7DoClearINS0_15UnknownFieldSetEEEvv(ptr noundef nonnull align 8 dereferenceable(8) %_internal_metadata_)
  br label %_ZN6google8protobuf8internal16InternalMetadata5ClearINS0_15UnknownFieldSetEEEvv.exit

_ZN6google8protobuf8internal16InternalMetadata5ClearINS0_15UnknownFieldSetEEEvv.exit: ; preds = %if.then.i, %_ZN6google8protobuf16RepeatedPtrFieldINSt7__cxx1112basic_stringIcSt11char_traitsIcESaIcEEEE5ClearEv.exit
  ret void
}